target datalayout = "e-m:e-p270:32:32-p271:32:32-p272:64:64-i64:64-i128:128-f80:128-n8:16:32:64-S128"
target triple = "x86_64-pc-linux-gnu"

; Function Attrs: nounwind uwtable
define i64 @wcslcpy(ptr noundef %0, ptr noundef %1, i64 noundef %2) #0 {
  %4 = alloca ptr, align 8
  %5 = alloca ptr, align 8
  %6 = alloca i64, align 8
  %7 = alloca ptr, align 8
  %8 = alloca ptr, align 8
  %9 = alloca i64, align 8
  store ptr %0, ptr %4, align 8
  store ptr %1, ptr %5, align 8
  store i64 %2, ptr %6, align 8
  %10 = load ptr, ptr %4, align 8
  store ptr %10, ptr %7, align 8
  %11 = load ptr, ptr %5, align 8
  store ptr %11, ptr %8, align 8
  %12 = load i64, ptr %6, align 8
  store i64 %12, ptr %9, align 8
  %13 = load i64, ptr %9, align 8
  %14 = icmp ne i64 %13, 0
  br i1 %14, label %15, label %34

15:                                               ; preds = %3
  %16 = load i64, ptr %9, align 8
  %17 = add i64 %16, -1
  store i64 %17, ptr %9, align 8
  %18 = icmp ne i64 %17, 0
  br i1 %18, label %19, label %34

19:                                               ; preds = %15
  br label %20

20:                                               ; preds = %29, %19
  %21 = load ptr, ptr %8, align 8
  %22 = getelementptr inbounds i32, ptr %21, i32 1
  store ptr %22, ptr %8, align 8
  %23 = load i32, ptr %21, align 4
  %24 = load ptr, ptr %7, align 8
  %25 = getelementptr inbounds i32, ptr %24, i32 1
  store ptr %25, ptr %7, align 8
  store i32 %23, ptr %24, align 4
  %26 = icmp eq i32 %23, 0
  br i1 %26, label %27, label %28

27:                                               ; preds = %20
  br label %33

28:                                               ; preds = %20
  br label %29

29:                                               ; preds = %28
  %30 = load i64, ptr %9, align 8
  %31 = add i64 %30, -1
  store i64 %31, ptr %9, align 8
  %32 = icmp ne i64 %31, 0
  br i1 %32, label %20, label %33, !llvm.loop !6

33:                                               ; preds = %29, %27
  br label %34

34:                                               ; preds = %33, %15, %3
  %35 = load i64, ptr %9, align 8
  %36 = icmp eq i64 %35, 0
  br i1 %36, label %37, label %50

37:                                               ; preds = %34
  %38 = load i64, ptr %6, align 8
  %39 = icmp ne i64 %38, 0
  br i1 %39, label %40, label %42

40:                                               ; preds = %37
  %41 = load ptr, ptr %7, align 8
  store i32 0, ptr %41, align 4
  br label %42

42:                                               ; preds = %40, %37
  br label %43

43:                                               ; preds = %48, %42
  %44 = load ptr, ptr %8, align 8
  %45 = getelementptr inbounds i32, ptr %44, i32 1
  store ptr %45, ptr %8, align 8
  %46 = load i32, ptr %44, align 4
  %47 = icmp ne i32 %46, 0
  br i1 %47, label %48, label %49

48:                                               ; preds = %43
  br label %43, !llvm.loop !8

49:                                               ; preds = %43
  br label %50

50:                                               ; preds = %49, %34
  %51 = load ptr, ptr %8, align 8
  %52 = load ptr, ptr %5, align 8
  %53 = ptrtoint ptr %51 to i64
  %54 = ptrtoint ptr %52 to i64
  %55 = sub i64 %53, %54
  %56 = sdiv exact i64 %55, 4
  %57 = sub nsw i64 %56, 1
  ret i64 %57
}


!llvm.module.flags = !{!0, !1, !2, !3, !4, !5}

!0 = !{i32 7, !"Dwarf Version", i32 5}
!1 = !{i32 2, !"Debug Info Version", i32 3}
!2 = !{i32 1, !"wchar_size", i32 4}
!3 = !{i32 8, !"PIC Level", i32 2}
!4 = !{i32 7, !"uwtable", i32 2}
!5 = !{i32 7, !"frame-pointer", i32 2}
!6 = distinct !{!6, !7}
!7 = !{!"llvm.loop.mustprogress"}
!8 = distinct !{!8, !7}
